target datalayout = "e-m:e-p270:32:32-p271:32:32-p272:64:64-i64:64-i128:128-f80:128-n8:16:32:64-S128"
target triple = "x86_64-unknown-linux-gnu"

%"class.smt::eq_justification" = type { ptr }
%"class.smt::enode" = type { ptr, ptr, ptr, ptr, i32, i32, i32, i16, i32, i8, i8, %class.ptr_vector, %class.id_var_list, %"struct.smt::trans_justification", %class.approx_set, %class.approx_set, [0 x ptr] }
%class.ptr_vector = type { %class.vector }
%class.vector = type { ptr }
%class.id_var_list = type { i32, ptr }
%"struct.smt::trans_justification" = type { ptr, %"class.smt::eq_justification" }
%class.approx_set = type { %class.approx_set_tpl }
%class.approx_set_tpl = type { i64 }
%class.app = type { %class.expr, ptr, i32, [0 x ptr] }
%class.expr = type { %class.ast }
%class.ast = type { i32, i24, i32, i32 }

; Function Attrs: mustprogress nounwind uwtable
define linkonce_odr hidden noundef i32 @_ZNK3app12get_num_argsEv(ptr noundef nonnull align 8 dereferenceable(32) %this) #4 comdat align 2 {
entry:
  %this.addr = alloca ptr, align 8
  store ptr %this, ptr %this.addr, align 8
  %this1 = load ptr, ptr %this.addr, align 8
  %m_num_args = getelementptr inbounds %class.app, ptr %this1, i32 0, i32 2
  %0 = load i32, ptr %m_num_args, align 8
  ret i32 %0
}

; Function Attrs: mustprogress nounwind uwtable
define linkonce_odr hidden noundef ptr @_ZNK3smt5enode8get_rootEv(ptr noundef nonnull align 8 dereferenceable(112) %this) #4 comdat align 2 {
entry:
  %this.addr = alloca ptr, align 8
  store ptr %this, ptr %this.addr, align 8
  %this1 = load ptr, ptr %this.addr, align 8
  %m_root = getelementptr inbounds %"class.smt::enode", ptr %this1, i32 0, i32 1
  %0 = load ptr, ptr %m_root, align 8
  ret ptr %0
}

; Function Attrs: mustprogress nounwind uwtable
define linkonce_odr hidden noundef ptr @_ZNK3smt5enode7get_argEj(ptr noundef nonnull align 8 dereferenceable(112) %this, i32 noundef %idx) #4 comdat align 2 {
entry:
  %this.addr = alloca ptr, align 8
  %idx.addr = alloca i32, align 4
  store ptr %this, ptr %this.addr, align 8
  store i32 %idx, ptr %idx.addr, align 4
  %this1 = load ptr, ptr %this.addr, align 8
  %m_args = getelementptr inbounds %"class.smt::enode", ptr %this1, i32 0, i32 16
  %0 = load i32, ptr %idx.addr, align 4
  %idxprom = zext i32 %0 to i64
  %arrayidx = getelementptr inbounds [0 x ptr], ptr %m_args, i64 0, i64 %idxprom
  %1 = load ptr, ptr %arrayidx, align 8
  ret ptr %1
}

; Function Attrs: mustprogress nounwind uwtable
define linkonce_odr hidden noundef zeroext i1 @_ZNK3smt5enode14is_commutativeEv(ptr noundef nonnull align 8 dereferenceable(112) %this) #4 comdat align 2 {
entry:
  %this.addr = alloca ptr, align 8
  store ptr %this, ptr %this.addr, align 8
  %this1 = load ptr, ptr %this.addr, align 8
  %m_commutative = getelementptr inbounds %"class.smt::enode", ptr %this1, i32 0, i32 7
  %bf.load = load i16, ptr %m_commutative, align 4
  %bf.lshr = lshr i16 %bf.load, 5
  %bf.clear = and i16 %bf.lshr, 1
  %bf.cast = zext i16 %bf.clear to i32
  %tobool = icmp ne i32 %bf.cast, 0
  ret i1 %tobool
}

; Function Attrs: mustprogress uwtable
define linkonce_odr hidden noundef i32 @_ZNK3smt5enode12get_num_argsEv(ptr noundef nonnull align 8 dereferenceable(112) %this) #5 comdat align 2 {
entry:
  %this.addr = alloca ptr, align 8
  store ptr %this, ptr %this.addr, align 8
  %this1 = load ptr, ptr %this.addr, align 8
  %m_suppress_args = getelementptr inbounds %"class.smt::enode", ptr %this1, i32 0, i32 7
  %bf.load = load i16, ptr %m_suppress_args, align 4
  %bf.lshr = lshr i16 %bf.load, 3
  %bf.clear = and i16 %bf.lshr, 1
  %bf.cast = zext i16 %bf.clear to i32
  %tobool = icmp ne i32 %bf.cast, 0
  br i1 %tobool, label %cond.true, label %cond.false

cond.true:                                        ; preds = %entry
  br label %cond.end

cond.false:                                       ; preds = %entry
  %m_owner = getelementptr inbounds %"class.smt::enode", ptr %this1, i32 0, i32 0
  %0 = load ptr, ptr %m_owner, align 8
  %call = call noundef i32 @_ZNK3app12get_num_argsEv(ptr noundef nonnull align 8 dereferenceable(32) %0)
  br label %cond.end

cond.end:                                         ; preds = %cond.false, %cond.true
  %cond = phi i32 [ 0, %cond.true ], [ %call, %cond.false ]
  ret i32 %cond
}

; Function Attrs: mustprogress nounwind uwtable
define linkonce_odr hidden noundef ptr @_ZNK3app8get_declEv(ptr noundef nonnull align 8 dereferenceable(32) %this) #4 comdat align 2 {
entry:
  %this.addr = alloca ptr, align 8
  store ptr %this, ptr %this.addr, align 8
  %this1 = load ptr, ptr %this.addr, align 8
  %m_decl = getelementptr inbounds %class.app, ptr %this1, i32 0, i32 1
  %0 = load ptr, ptr %m_decl, align 8
  ret ptr %0
}

; Function Attrs: mustprogress nounwind uwtable
define linkonce_odr hidden noundef ptr @_ZNK3smt5enode8get_exprEv(ptr noundef nonnull align 8 dereferenceable(112) %this) #4 comdat align 2 {
entry:
  %this.addr = alloca ptr, align 8
  store ptr %this, ptr %this.addr, align 8
  %this1 = load ptr, ptr %this.addr, align 8
  %m_owner = getelementptr inbounds %"class.smt::enode", ptr %this1, i32 0, i32 0
  %0 = load ptr, ptr %m_owner, align 8
  ret ptr %0
}

; Function Attrs: mustprogress uwtable
define hidden noundef zeroext i1 @_ZN3smt9congruentEPNS_5enodeES1_Rb(ptr noundef %n1, ptr noundef %n2, ptr noundef nonnull align 1 dereferenceable(1) %comm) #5 {
entry:
  %retval = alloca i1, align 1
  %n1.addr = alloca ptr, align 8
  %n2.addr = alloca ptr, align 8
  %comm.addr = alloca ptr, align 8
  %num_args = alloca i32, align 4
  %c1_1 = alloca ptr, align 8
  %c1_2 = alloca ptr, align 8
  %c2_1 = alloca ptr, align 8
  %c2_2 = alloca ptr, align 8
  %i = alloca i32, align 4
  store ptr %n1, ptr %n1.addr, align 8
  store ptr %n2, ptr %n2.addr, align 8
  store ptr %comm, ptr %comm.addr, align 8
  %0 = load ptr, ptr %comm.addr, align 8
  store i8 0, ptr %0, align 1
  %1 = load ptr, ptr %n1.addr, align 8
  %call = call noundef ptr @_ZNK3smt5enode8get_exprEv(ptr noundef nonnull align 8 dereferenceable(112) %1)
  %call1 = call noundef ptr @_ZNK3app8get_declEv(ptr noundef nonnull align 8 dereferenceable(32) %call)
  %2 = load ptr, ptr %n2.addr, align 8
  %call2 = call noundef ptr @_ZNK3smt5enode8get_exprEv(ptr noundef nonnull align 8 dereferenceable(112) %2)
  %call3 = call noundef ptr @_ZNK3app8get_declEv(ptr noundef nonnull align 8 dereferenceable(32) %call2)
  %cmp = icmp ne ptr %call1, %call3
  br i1 %cmp, label %if.then, label %if.end

if.then:                                          ; preds = %entry
  store i1 false, ptr %retval, align 1
  br label %return

if.end:                                           ; preds = %entry
  %3 = load ptr, ptr %n1.addr, align 8
  %call4 = call noundef i32 @_ZNK3smt5enode12get_num_argsEv(ptr noundef nonnull align 8 dereferenceable(112) %3)
  store i32 %call4, ptr %num_args, align 4
  %4 = load i32, ptr %num_args, align 4
  %5 = load ptr, ptr %n2.addr, align 8
  %call5 = call noundef i32 @_ZNK3smt5enode12get_num_argsEv(ptr noundef nonnull align 8 dereferenceable(112) %5)
  %cmp6 = icmp ne i32 %4, %call5
  br i1 %cmp6, label %if.then7, label %if.end8

if.then7:                                         ; preds = %if.end
  store i1 false, ptr %retval, align 1
  br label %return

if.end8:                                          ; preds = %if.end
  %6 = load ptr, ptr %n1.addr, align 8
  %call9 = call noundef zeroext i1 @_ZNK3smt5enode14is_commutativeEv(ptr noundef nonnull align 8 dereferenceable(112) %6)
  br i1 %call9, label %if.then10, label %if.else

if.then10:                                        ; preds = %if.end8
  %7 = load ptr, ptr %n1.addr, align 8
  %call11 = call noundef ptr @_ZNK3smt5enode7get_argEj(ptr noundef nonnull align 8 dereferenceable(112) %7, i32 noundef 0)
  %call12 = call noundef ptr @_ZNK3smt5enode8get_rootEv(ptr noundef nonnull align 8 dereferenceable(112) %call11)
  store ptr %call12, ptr %c1_1, align 8
  %8 = load ptr, ptr %n1.addr, align 8
  %call13 = call noundef ptr @_ZNK3smt5enode7get_argEj(ptr noundef nonnull align 8 dereferenceable(112) %8, i32 noundef 1)
  %call14 = call noundef ptr @_ZNK3smt5enode8get_rootEv(ptr noundef nonnull align 8 dereferenceable(112) %call13)
  store ptr %call14, ptr %c1_2, align 8
  %9 = load ptr, ptr %n2.addr, align 8
  %call15 = call noundef ptr @_ZNK3smt5enode7get_argEj(ptr noundef nonnull align 8 dereferenceable(112) %9, i32 noundef 0)
  %call16 = call noundef ptr @_ZNK3smt5enode8get_rootEv(ptr noundef nonnull align 8 dereferenceable(112) %call15)
  store ptr %call16, ptr %c2_1, align 8
  %10 = load ptr, ptr %n2.addr, align 8
  %call17 = call noundef ptr @_ZNK3smt5enode7get_argEj(ptr noundef nonnull align 8 dereferenceable(112) %10, i32 noundef 1)
  %call18 = call noundef ptr @_ZNK3smt5enode8get_rootEv(ptr noundef nonnull align 8 dereferenceable(112) %call17)
  store ptr %call18, ptr %c2_2, align 8
  %11 = load ptr, ptr %c1_1, align 8
  %12 = load ptr, ptr %c2_1, align 8
  %cmp19 = icmp eq ptr %11, %12
  br i1 %cmp19, label %land.lhs.true, label %if.end22

land.lhs.true:                                    ; preds = %if.then10
  %13 = load ptr, ptr %c1_2, align 8
  %14 = load ptr, ptr %c2_2, align 8
  %cmp20 = icmp eq ptr %13, %14
  br i1 %cmp20, label %if.then21, label %if.end22

if.then21:                                        ; preds = %land.lhs.true
  store i1 true, ptr %retval, align 1
  br label %return

if.end22:                                         ; preds = %land.lhs.true, %if.then10
  %15 = load ptr, ptr %c1_1, align 8
  %16 = load ptr, ptr %c2_2, align 8
  %cmp23 = icmp eq ptr %15, %16
  br i1 %cmp23, label %land.lhs.true24, label %if.end27

land.lhs.true24:                                  ; preds = %if.end22
  %17 = load ptr, ptr %c1_2, align 8
  %18 = load ptr, ptr %c2_1, align 8
  %cmp25 = icmp eq ptr %17, %18
  br i1 %cmp25, label %if.then26, label %if.end27

if.then26:                                        ; preds = %land.lhs.true24
  %19 = load ptr, ptr %comm.addr, align 8
  store i8 1, ptr %19, align 1
  store i1 true, ptr %retval, align 1
  br label %return

if.end27:                                         ; preds = %land.lhs.true24, %if.end22
  store i1 false, ptr %retval, align 1
  br label %return

if.else:                                          ; preds = %if.end8
  store i32 0, ptr %i, align 4
  br label %for.cond

for.cond:                                         ; preds = %for.inc, %if.else
  %20 = load i32, ptr %i, align 4
  %21 = load i32, ptr %num_args, align 4
  %cmp28 = icmp ult i32 %20, %21
  br i1 %cmp28, label %for.body, label %for.end

for.body:                                         ; preds = %for.cond
  %22 = load ptr, ptr %n1.addr, align 8
  %23 = load i32, ptr %i, align 4
  %call29 = call noundef ptr @_ZNK3smt5enode7get_argEj(ptr noundef nonnull align 8 dereferenceable(112) %22, i32 noundef %23)
  %call30 = call noundef ptr @_ZNK3smt5enode8get_rootEv(ptr noundef nonnull align 8 dereferenceable(112) %call29)
  %24 = load ptr, ptr %n2.addr, align 8
  %25 = load i32, ptr %i, align 4
  %call31 = call noundef ptr @_ZNK3smt5enode7get_argEj(ptr noundef nonnull align 8 dereferenceable(112) %24, i32 noundef %25)
  %call32 = call noundef ptr @_ZNK3smt5enode8get_rootEv(ptr noundef nonnull align 8 dereferenceable(112) %call31)
  %cmp33 = icmp ne ptr %call30, %call32
  br i1 %cmp33, label %if.then34, label %if.end35

if.then34:                                        ; preds = %for.body
  store i1 false, ptr %retval, align 1
  br label %return

if.end35:                                         ; preds = %for.body
  br label %for.inc

for.inc:                                          ; preds = %if.end35
  %26 = load i32, ptr %i, align 4
  %inc = add i32 %26, 1
  store i32 %inc, ptr %i, align 4
  br label %for.cond, !llvm.loop !13

for.end:                                          ; preds = %for.cond
  store i1 true, ptr %retval, align 1
  br label %return

return:                                           ; preds = %for.end, %if.then34, %if.end27, %if.then26, %if.then21, %if.then7, %if.then
  %27 = load i1, ptr %retval, align 1
  ret i1 %27
}