; Function Attrs: mustprogress nofree norecurse nosync nounwind memory(read, argmem: readwrite, inaccessiblemem: none) uwtable
define hidden noundef zeroext i1 @_ZN3smt9congruentEPNS_5enodeES1_Rb(ptr nocapture noundef readonly %n1, ptr nocapture noundef readonly %n2, ptr nocapture noundef nonnull writeonly align 1 dereferenceable(1) %comm) local_unnamed_addr #7 {
entry:
  store i8 0, ptr %comm, align 1
  %0 = load ptr, ptr %n1, align 8
  %m_decl.i = getelementptr inbounds i8, ptr %0, i64 16
  %1 = load ptr, ptr %m_decl.i, align 8
  %2 = load ptr, ptr %n2, align 8
  %m_decl.i20 = getelementptr inbounds i8, ptr %2, i64 16
  %3 = load ptr, ptr %m_decl.i20, align 8
  %cmp.not = icmp eq ptr %1, %3
  br i1 %cmp.not, label %if.end, label %return

if.end:                                           ; preds = %entry
  %m_suppress_args.i = getelementptr inbounds i8, ptr %n1, i64 44
  %bf.load.i = load i16, ptr %m_suppress_args.i, align 4
  %4 = and i16 %bf.load.i, 8
  %tobool.not.i = icmp eq i16 %4, 0
  br i1 %tobool.not.i, label %cond.false.i, label %_ZNK3smt5enode12get_num_argsEv.exit

cond.false.i:                                     ; preds = %if.end
  %m_num_args.i.i = getelementptr inbounds i8, ptr %0, i64 24
  %5 = load i32, ptr %m_num_args.i.i, align 8
  br label %_ZNK3smt5enode12get_num_argsEv.exit

_ZNK3smt5enode12get_num_argsEv.exit:              ; preds = %if.end, %cond.false.i
  %cond.i = phi i32 [ %5, %cond.false.i ], [ 0, %if.end ]
  %m_suppress_args.i21 = getelementptr inbounds i8, ptr %n2, i64 44
  %bf.load.i22 = load i16, ptr %m_suppress_args.i21, align 4
  %6 = and i16 %bf.load.i22, 8
  %tobool.not.i23 = icmp eq i16 %6, 0
  br i1 %tobool.not.i23, label %cond.false.i25, label %_ZNK3smt5enode12get_num_argsEv.exit27

cond.false.i25:                                   ; preds = %_ZNK3smt5enode12get_num_argsEv.exit
  %m_num_args.i.i26 = getelementptr inbounds i8, ptr %2, i64 24
  %7 = load i32, ptr %m_num_args.i.i26, align 8
  br label %_ZNK3smt5enode12get_num_argsEv.exit27

_ZNK3smt5enode12get_num_argsEv.exit27:            ; preds = %_ZNK3smt5enode12get_num_argsEv.exit, %cond.false.i25
  %cond.i24 = phi i32 [ %7, %cond.false.i25 ], [ 0, %_ZNK3smt5enode12get_num_argsEv.exit ]
  %cmp6.not = icmp eq i32 %cond.i, %cond.i24
  br i1 %cmp6.not, label %if.end8, label %return

if.end8:                                          ; preds = %_ZNK3smt5enode12get_num_argsEv.exit27
  %8 = and i16 %bf.load.i, 32
  %tobool.i.not = icmp eq i16 %8, 0
  %m_args.i36 = getelementptr inbounds i8, ptr %n1, i64 112
  br i1 %tobool.i.not, label %for.cond.preheader, label %if.then10

for.cond.preheader:                               ; preds = %if.end8
  %cmp2843.not = icmp eq i32 %cond.i, 0
  br i1 %cmp2843.not, label %return, label %for.body.lr.ph

for.body.lr.ph:                                   ; preds = %for.cond.preheader
  %m_args.i39 = getelementptr inbounds i8, ptr %n2, i64 112
  %wide.trip.count = zext i32 %cond.i to i64
  br label %for.body

if.then10:                                        ; preds = %if.end8
  %9 = load ptr, ptr %m_args.i36, align 8
  %m_root.i = getelementptr inbounds i8, ptr %9, i64 8
  %10 = load ptr, ptr %m_root.i, align 8
  %arrayidx.i = getelementptr inbounds i8, ptr %n1, i64 120
  %11 = load ptr, ptr %arrayidx.i, align 8
  %m_root.i30 = getelementptr inbounds i8, ptr %11, i64 8
  %12 = load ptr, ptr %m_root.i30, align 8
  %m_args.i31 = getelementptr inbounds i8, ptr %n2, i64 112
  %13 = load ptr, ptr %m_args.i31, align 8
  %m_root.i32 = getelementptr inbounds i8, ptr %13, i64 8
  %14 = load ptr, ptr %m_root.i32, align 8
  %arrayidx.i34 = getelementptr inbounds i8, ptr %n2, i64 120
  %15 = load ptr, ptr %arrayidx.i34, align 8
  %m_root.i35 = getelementptr inbounds i8, ptr %15, i64 8
  %16 = load ptr, ptr %m_root.i35, align 8
  %cmp19 = icmp eq ptr %10, %14
  %cmp20 = icmp eq ptr %12, %16
  %or.cond = and i1 %cmp19, %cmp20
  br i1 %or.cond, label %return, label %if.end22

if.end22:                                         ; preds = %if.then10
  %cmp23 = icmp eq ptr %10, %16
  %cmp25 = icmp eq ptr %12, %14
  %or.cond19 = and i1 %cmp25, %cmp23
  br i1 %or.cond19, label %if.then26, label %return

if.then26:                                        ; preds = %if.end22
  store i8 1, ptr %comm, align 1
  br label %return

for.body:                                         ; preds = %for.body, %for.body.lr.ph
  %indvars.iv = phi i64 [ 0, %for.body.lr.ph ], [ %indvars.iv.next, %for.body ]
  %arrayidx.i37 = getelementptr inbounds [0 x ptr], ptr %m_args.i36, i64 0, i64 %indvars.iv
  %17 = load ptr, ptr %arrayidx.i37, align 8
  %m_root.i38 = getelementptr inbounds i8, ptr %17, i64 8
  %18 = load ptr, ptr %m_root.i38, align 8
  %arrayidx.i41 = getelementptr inbounds [0 x ptr], ptr %m_args.i39, i64 0, i64 %indvars.iv
  %19 = load ptr, ptr %arrayidx.i41, align 8
  %m_root.i42 = getelementptr inbounds i8, ptr %19, i64 8
  %20 = load ptr, ptr %m_root.i42, align 8
  %cmp33.not = icmp eq ptr %18, %20
  %indvars.iv.next = add nuw nsw i64 %indvars.iv, 1
  %exitcond.not = icmp ne i64 %indvars.iv.next, %wide.trip.count
  %or.cond47.not = select i1 %cmp33.not, i1 %exitcond.not, i1 false
  br i1 %or.cond47.not, label %for.body, label %return, !llvm.loop !13

return:                                           ; preds = %for.body, %for.cond.preheader, %if.end22, %if.then10, %_ZNK3smt5enode12get_num_argsEv.exit27, %entry, %if.then26
  %retval.0 = phi i1 [ true, %if.then26 ], [ false, %entry ], [ false, %_ZNK3smt5enode12get_num_argsEv.exit27 ], [ true, %if.then10 ], [ false, %if.end22 ], [ true, %for.cond.preheader ], [ %cmp33.not, %for.body ]
  ret i1 %retval.0
}